target datalayout = "e-m:e-p270:32:32-p271:32:32-p272:64:64-i64:64-i128:128-f80:128-n8:16:32:64-S128"
target triple = "x86_64-pc-linux-gnu"

%"struct.duckdb_miniz::tdefl_compressor" = type { ptr, ptr, i32, [2 x i32], i32, i32, i32, i32, i32, ptr, ptr, ptr, ptr, i32, i32, i32, i32, i32, i32, i32, i32, i32, i32, i32, i32, i32, i32, ptr, ptr, ptr, ptr, i32, ptr, i64, i64, [33025 x i8], [3 x [288 x i16]], [3 x [288 x i16]], [3 x [288 x i8]], [65536 x i8], [32768 x i16], [32768 x i16], [85196 x i8] }

; Function Attrs: mustprogress nounwind uwtable
define internal noundef i32 @_ZN12duckdb_minizL25tdefl_flush_output_bufferEPNS_16tdefl_compressorE(ptr noundef %0) #0 {
  %2 = alloca ptr, align 8
  %3 = alloca i64, align 8
  store ptr %0, ptr %2, align 8, !tbaa !19
  %4 = load ptr, ptr %2, align 8, !tbaa !19
  %5 = getelementptr inbounds nuw %"struct.duckdb_miniz::tdefl_compressor", ptr %4, i32 0, i32 29
  %6 = load ptr, ptr %5, align 8, !tbaa !66
  %7 = icmp ne ptr %6, null
  br i1 %7, label %8, label %21

8:                                                ; preds = %1
  %9 = load ptr, ptr %2, align 8, !tbaa !19
  %10 = getelementptr inbounds nuw %"struct.duckdb_miniz::tdefl_compressor", ptr %9, i32 0, i32 32
  %11 = load ptr, ptr %10, align 8, !tbaa !69
  %12 = load ptr, ptr %2, align 8, !tbaa !19
  %13 = getelementptr inbounds nuw %"struct.duckdb_miniz::tdefl_compressor", ptr %12, i32 0, i32 27
  %14 = load ptr, ptr %13, align 8, !tbaa !64
  %15 = ptrtoint ptr %11 to i64
  %16 = ptrtoint ptr %14 to i64
  %17 = sub i64 %15, %16
  %18 = load ptr, ptr %2, align 8, !tbaa !19
  %19 = getelementptr inbounds nuw %"struct.duckdb_miniz::tdefl_compressor", ptr %18, i32 0, i32 29
  %20 = load ptr, ptr %19, align 8, !tbaa !66
  store i64 %17, ptr %20, align 8, !tbaa !3
  br label %21

21:                                               ; preds = %8, %1
  %22 = load ptr, ptr %2, align 8, !tbaa !19
  %23 = getelementptr inbounds nuw %"struct.duckdb_miniz::tdefl_compressor", ptr %22, i32 0, i32 30
  %24 = load ptr, ptr %23, align 8, !tbaa !67
  %25 = icmp ne ptr %24, null
  br i1 %25, label %26, label %95

26:                                               ; preds = %21
  call void @llvm.lifetime.start.p0(i64 8, ptr %3) #11
  %27 = load ptr, ptr %2, align 8, !tbaa !19
  %28 = getelementptr inbounds nuw %"struct.duckdb_miniz::tdefl_compressor", ptr %27, i32 0, i32 30
  %29 = load ptr, ptr %28, align 8, !tbaa !67
  %30 = load i64, ptr %29, align 8, !tbaa !3
  %31 = load ptr, ptr %2, align 8, !tbaa !19
  %32 = getelementptr inbounds nuw %"struct.duckdb_miniz::tdefl_compressor", ptr %31, i32 0, i32 34
  %33 = load i64, ptr %32, align 8, !tbaa !71
  %34 = sub i64 %30, %33
  %35 = load ptr, ptr %2, align 8, !tbaa !19
  %36 = getelementptr inbounds nuw %"struct.duckdb_miniz::tdefl_compressor", ptr %35, i32 0, i32 22
  %37 = load i32, ptr %36, align 4, !tbaa !52
  %38 = zext i32 %37 to i64
  %39 = icmp ult i64 %34, %38
  br i1 %39, label %40, label %49

40:                                               ; preds = %26
  %41 = load ptr, ptr %2, align 8, !tbaa !19
  %42 = getelementptr inbounds nuw %"struct.duckdb_miniz::tdefl_compressor", ptr %41, i32 0, i32 30
  %43 = load ptr, ptr %42, align 8, !tbaa !67
  %44 = load i64, ptr %43, align 8, !tbaa !3
  %45 = load ptr, ptr %2, align 8, !tbaa !19
  %46 = getelementptr inbounds nuw %"struct.duckdb_miniz::tdefl_compressor", ptr %45, i32 0, i32 34
  %47 = load i64, ptr %46, align 8, !tbaa !71
  %48 = sub i64 %44, %47
  br label %54

49:                                               ; preds = %26
  %50 = load ptr, ptr %2, align 8, !tbaa !19
  %51 = getelementptr inbounds nuw %"struct.duckdb_miniz::tdefl_compressor", ptr %50, i32 0, i32 22
  %52 = load i32, ptr %51, align 4, !tbaa !52
  %53 = zext i32 %52 to i64
  br label %54

54:                                               ; preds = %49, %40
  %55 = phi i64 [ %48, %40 ], [ %53, %49 ]
  store i64 %55, ptr %3, align 8, !tbaa !3
  %56 = load ptr, ptr %2, align 8, !tbaa !19
  %57 = getelementptr inbounds nuw %"struct.duckdb_miniz::tdefl_compressor", ptr %56, i32 0, i32 28
  %58 = load ptr, ptr %57, align 8, !tbaa !65
  %59 = load ptr, ptr %2, align 8, !tbaa !19
  %60 = getelementptr inbounds nuw %"struct.duckdb_miniz::tdefl_compressor", ptr %59, i32 0, i32 34
  %61 = load i64, ptr %60, align 8, !tbaa !71
  %62 = getelementptr inbounds nuw i8, ptr %58, i64 %61
  %63 = load ptr, ptr %2, align 8, !tbaa !19
  %64 = getelementptr inbounds nuw %"struct.duckdb_miniz::tdefl_compressor", ptr %63, i32 0, i32 42
  %65 = getelementptr inbounds [85196 x i8], ptr %64, i64 0, i64 0
  %66 = load ptr, ptr %2, align 8, !tbaa !19
  %67 = getelementptr inbounds nuw %"struct.duckdb_miniz::tdefl_compressor", ptr %66, i32 0, i32 21
  %68 = load i32, ptr %67, align 8, !tbaa !53
  %69 = zext i32 %68 to i64
  %70 = getelementptr inbounds nuw i8, ptr %65, i64 %69
  %71 = load i64, ptr %3, align 8, !tbaa !3
  call void @llvm.memcpy.p0.p0.i64(ptr align 1 %62, ptr align 1 %70, i64 %71, i1 false)
  %72 = load i64, ptr %3, align 8, !tbaa !3
  %73 = trunc i64 %72 to i32
  %74 = load ptr, ptr %2, align 8, !tbaa !19
  %75 = getelementptr inbounds nuw %"struct.duckdb_miniz::tdefl_compressor", ptr %74, i32 0, i32 21
  %76 = load i32, ptr %75, align 8, !tbaa !53
  %77 = add i32 %76, %73
  store i32 %77, ptr %75, align 8, !tbaa !53
  %78 = load i64, ptr %3, align 8, !tbaa !3
  %79 = trunc i64 %78 to i32
  %80 = load ptr, ptr %2, align 8, !tbaa !19
  %81 = getelementptr inbounds nuw %"struct.duckdb_miniz::tdefl_compressor", ptr %80, i32 0, i32 22
  %82 = load i32, ptr %81, align 4, !tbaa !52
  %83 = sub i32 %82, %79
  store i32 %83, ptr %81, align 4, !tbaa !52
  %84 = load i64, ptr %3, align 8, !tbaa !3
  %85 = load ptr, ptr %2, align 8, !tbaa !19
  %86 = getelementptr inbounds nuw %"struct.duckdb_miniz::tdefl_compressor", ptr %85, i32 0, i32 34
  %87 = load i64, ptr %86, align 8, !tbaa !71
  %88 = add i64 %87, %84
  store i64 %88, ptr %86, align 8, !tbaa !71
  %89 = load ptr, ptr %2, align 8, !tbaa !19
  %90 = getelementptr inbounds nuw %"struct.duckdb_miniz::tdefl_compressor", ptr %89, i32 0, i32 34
  %91 = load i64, ptr %90, align 8, !tbaa !71
  %92 = load ptr, ptr %2, align 8, !tbaa !19
  %93 = getelementptr inbounds nuw %"struct.duckdb_miniz::tdefl_compressor", ptr %92, i32 0, i32 30
  %94 = load ptr, ptr %93, align 8, !tbaa !67
  store i64 %91, ptr %94, align 8, !tbaa !3
  call void @llvm.lifetime.end.p0(i64 8, ptr %3) #11
  br label %95

95:                                               ; preds = %54, %21
  %96 = load ptr, ptr %2, align 8, !tbaa !19
  %97 = getelementptr inbounds nuw %"struct.duckdb_miniz::tdefl_compressor", ptr %96, i32 0, i32 23
  %98 = load i32, ptr %97, align 8, !tbaa !51
  %99 = icmp ne i32 %98, 0
  br i1 %99, label %100, label %106

100:                                              ; preds = %95
  %101 = load ptr, ptr %2, align 8, !tbaa !19
  %102 = getelementptr inbounds nuw %"struct.duckdb_miniz::tdefl_compressor", ptr %101, i32 0, i32 22
  %103 = load i32, ptr %102, align 4, !tbaa !52
  %104 = icmp ne i32 %103, 0
  %105 = xor i1 %104, true
  br label %106

106:                                              ; preds = %100, %95
  %107 = phi i1 [ false, %95 ], [ %105, %100 ]
  %108 = select i1 %107, i32 1, i32 0
  ret i32 %108
}