; Function Attrs: mustprogress nofree norecurse nosync nounwind willreturn memory(readwrite, inaccessiblemem: none) uwtable
define internal fastcc noundef range(i32 0, 2) i32 @_ZN12duckdb_minizL25tdefl_flush_output_bufferEPNS_16tdefl_compressorE(ptr noundef nonnull captures(none) %0) unnamed_addr #10 {
  %2 = getelementptr inbounds nuw i8, ptr %0, i64 152
  %3 = load ptr, ptr %2, align 8, !tbaa !55
  %.not = icmp eq ptr %3, null
  br i1 %.not, label %12, label %4

4:                                                ; preds = %1
  %5 = getelementptr inbounds nuw i8, ptr %0, i64 176
  %6 = load ptr, ptr %5, align 8, !tbaa !58
  %7 = getelementptr inbounds nuw i8, ptr %0, i64 136
  %8 = load ptr, ptr %7, align 8, !tbaa !54
  %9 = ptrtoint ptr %6 to i64
  %10 = ptrtoint ptr %8 to i64
  %11 = sub i64 %9, %10
  store i64 %11, ptr %3, align 8, !tbaa !53
  br label %12

12:                                               ; preds = %4, %1
  %13 = getelementptr inbounds nuw i8, ptr %0, i64 160
  %14 = load ptr, ptr %13, align 8, !tbaa !57
  %.not28 = icmp eq ptr %14, null
  br i1 %.not28, label %39, label %15

15:                                               ; preds = %12
  %16 = load i64, ptr %14, align 8, !tbaa !53
  %17 = getelementptr inbounds nuw i8, ptr %0, i64 192
  %18 = load i64, ptr %17, align 8, !tbaa !60
  %19 = sub i64 %16, %18
  %20 = getelementptr inbounds nuw i8, ptr %0, i64 116
  %21 = load i32, ptr %20, align 4, !tbaa !63
  %22 = zext i32 %21 to i64
  %. = tail call i64 @llvm.umin.i64(i64 %19, i64 %22)
  %23 = getelementptr inbounds nuw i8, ptr %0, i64 144
  %24 = load ptr, ptr %23, align 8, !tbaa !56
  %25 = getelementptr inbounds nuw i8, ptr %24, i64 %18
  %26 = getelementptr inbounds nuw i8, ptr %0, i64 234154
  %27 = getelementptr inbounds nuw i8, ptr %0, i64 112
  %28 = load i32, ptr %27, align 8, !tbaa !65
  %29 = zext i32 %28 to i64
  %30 = getelementptr inbounds nuw i8, ptr %26, i64 %29
  tail call void @llvm.memcpy.p0.p0.i64(ptr align 1 %25, ptr nonnull align 1 %30, i64 %., i1 false)
  %31 = trunc nuw i64 %. to i32
  %32 = load i32, ptr %27, align 8, !tbaa !65
  %33 = add i32 %32, %31
  store i32 %33, ptr %27, align 8, !tbaa !65
  %34 = load i32, ptr %20, align 4, !tbaa !63
  %35 = sub i32 %34, %31
  store i32 %35, ptr %20, align 4, !tbaa !63
  %36 = load i64, ptr %17, align 8, !tbaa !60
  %37 = add i64 %36, %.
  store i64 %37, ptr %17, align 8, !tbaa !60
  %38 = load ptr, ptr %13, align 8, !tbaa !57
  store i64 %37, ptr %38, align 8, !tbaa !53
  br label %39

39:                                               ; preds = %15, %12
  %40 = getelementptr inbounds nuw i8, ptr %0, i64 120
  %41 = load i32, ptr %40, align 8, !tbaa !64
  %.not29 = icmp eq i32 %41, 0
  br i1 %.not29, label %46, label %42

42:                                               ; preds = %39
  %43 = getelementptr inbounds nuw i8, ptr %0, i64 116
  %44 = load i32, ptr %43, align 4, !tbaa !63
  %.not30 = icmp eq i32 %44, 0
  %45 = zext i1 %.not30 to i32
  br label %46

46:                                               ; preds = %42, %39
  %47 = phi i32 [ 0, %39 ], [ %45, %42 ]
  ret i32 %47
}